; ModuleID = '21/712.c'
source_filename = "21/712.c"
target datalayout = "e-m:e-p270:32:32-p271:32:32-p272:64:64-i64:64-f80:128-n8:16:32:64-S128"
target triple = "x86_64-pc-linux-gnu"

@.str = private unnamed_addr constant [3 x i8] c"%d\00", align 1
@.str.1 = private unnamed_addr constant [4 x i8] c",%d\00", align 1

; Function Attrs: noinline nounwind uwtable
define dso_local void @main() #0 {
  %1 = alloca i32, align 4
  %2 = alloca i32, align 4
  %3 = alloca i32, align 4
  %4 = alloca i32, align 4
  %5 = alloca i32, align 4
  %6 = alloca i32, align 4
  %7 = alloca i32, align 4
  %8 = alloca [300 x i32], align 16
  store i32 0, i32* %5, align 4
  store i32 0, i32* %6, align 4
  store i32 0, i32* %7, align 4
  %9 = call i32 (i8*, ...) @__isoc99_scanf(i8* getelementptr inbounds ([3 x i8], [3 x i8]* @.str, i64 0, i64 0), i32* %1)
  store i32 0, i32* %2, align 4
  br label %10

10:                                               ; preds = %25, %0
  %11 = load i32, i32* %2, align 4
  %12 = load i32, i32* %1, align 4
  %13 = icmp slt i32 %11, %12
  br i1 %13, label %14, label %28

14:                                               ; preds = %10
  %15 = load i32, i32* %2, align 4
  %16 = sext i32 %15 to i64
  %17 = getelementptr inbounds [300 x i32], [300 x i32]* %8, i64 0, i64 %16
  %18 = call i32 (i8*, ...) @__isoc99_scanf(i8* getelementptr inbounds ([3 x i8], [3 x i8]* @.str, i64 0, i64 0), i32* %17)
  %19 = load i32, i32* %5, align 4
  %20 = load i32, i32* %2, align 4
  %21 = sext i32 %20 to i64
  %22 = getelementptr inbounds [300 x i32], [300 x i32]* %8, i64 0, i64 %21
  %23 = load i32, i32* %22, align 4
  %24 = add nsw i32 %19, %23
  store i32 %24, i32* %5, align 4
  br label %25

25:                                               ; preds = %14
  %26 = load i32, i32* %2, align 4
  %27 = add nsw i32 %26, 1
  store i32 %27, i32* %2, align 4
  br label %10

28:                                               ; preds = %10
  store i32 0, i32* %2, align 4
  br label %29

29:                                               ; preds = %86, %28
  %30 = load i32, i32* %2, align 4
  %31 = load i32, i32* %1, align 4
  %32 = icmp slt i32 %30, %31
  br i1 %32, label %33, label %89

33:                                               ; preds = %29
  %34 = load i32, i32* %2, align 4
  %35 = sext i32 %34 to i64
  %36 = getelementptr inbounds [300 x i32], [300 x i32]* %8, i64 0, i64 %35
  %37 = load i32, i32* %36, align 4
  %38 = load i32, i32* %1, align 4
  %39 = mul nsw i32 %37, %38
  %40 = load i32, i32* %5, align 4
  %41 = sub nsw i32 %39, %40
  %42 = icmp sge i32 %41, 0
  br i1 %42, label %43, label %64

43:                                               ; preds = %33
  %44 = load i32, i32* %2, align 4
  %45 = sext i32 %44 to i64
  %46 = getelementptr inbounds [300 x i32], [300 x i32]* %8, i64 0, i64 %45
  %47 = load i32, i32* %46, align 4
  %48 = load i32, i32* %1, align 4
  %49 = mul nsw i32 %47, %48
  %50 = load i32, i32* %5, align 4
  %51 = sub nsw i32 %49, %50
  %52 = load i32, i32* %6, align 4
  %53 = icmp sgt i32 %51, %52
  br i1 %53, label %54, label %63

54:                                               ; preds = %43
  %55 = load i32, i32* %2, align 4
  %56 = sext i32 %55 to i64
  %57 = getelementptr inbounds [300 x i32], [300 x i32]* %8, i64 0, i64 %56
  %58 = load i32, i32* %57, align 4
  %59 = load i32, i32* %1, align 4
  %60 = mul nsw i32 %58, %59
  %61 = load i32, i32* %5, align 4
  %62 = sub nsw i32 %60, %61
  store i32 %62, i32* %6, align 4
  br label %63

63:                                               ; preds = %54, %43
  br label %85

64:                                               ; preds = %33
  %65 = load i32, i32* %5, align 4
  %66 = load i32, i32* %2, align 4
  %67 = sext i32 %66 to i64
  %68 = getelementptr inbounds [300 x i32], [300 x i32]* %8, i64 0, i64 %67
  %69 = load i32, i32* %68, align 4
  %70 = load i32, i32* %1, align 4
  %71 = mul nsw i32 %69, %70
  %72 = sub nsw i32 %65, %71
  %73 = load i32, i32* %6, align 4
  %74 = icmp sgt i32 %72, %73
  br i1 %74, label %75, label %84

75:                                               ; preds = %64
  %76 = load i32, i32* %5, align 4
  %77 = load i32, i32* %2, align 4
  %78 = sext i32 %77 to i64
  %79 = getelementptr inbounds [300 x i32], [300 x i32]* %8, i64 0, i64 %78
  %80 = load i32, i32* %79, align 4
  %81 = load i32, i32* %1, align 4
  %82 = mul nsw i32 %80, %81
  %83 = sub nsw i32 %76, %82
  store i32 %83, i32* %6, align 4
  br label %84

84:                                               ; preds = %75, %64
  br label %85

85:                                               ; preds = %84, %63
  br label %86

86:                                               ; preds = %85
  %87 = load i32, i32* %2, align 4
  %88 = add nsw i32 %87, 1
  store i32 %88, i32* %2, align 4
  br label %29

89:                                               ; preds = %29
  store i32 0, i32* %3, align 4
  br label %90

90:                                               ; preds = %137, %89
  %91 = load i32, i32* %3, align 4
  %92 = load i32, i32* %1, align 4
  %93 = sub nsw i32 %92, 1
  %94 = icmp slt i32 %91, %93
  br i1 %94, label %95, label %140

95:                                               ; preds = %90
  store i32 0, i32* %2, align 4
  br label %96

96:                                               ; preds = %133, %95
  %97 = load i32, i32* %2, align 4
  %98 = load i32, i32* %1, align 4
  %99 = sub nsw i32 %98, 1
  %100 = load i32, i32* %3, align 4
  %101 = sub nsw i32 %99, %100
  %102 = icmp slt i32 %97, %101
  br i1 %102, label %103, label %136

103:                                              ; preds = %96
  %104 = load i32, i32* %2, align 4
  %105 = sext i32 %104 to i64
  %106 = getelementptr inbounds [300 x i32], [300 x i32]* %8, i64 0, i64 %105
  %107 = load i32, i32* %106, align 4
  %108 = load i32, i32* %2, align 4
  %109 = add nsw i32 %108, 1
  %110 = sext i32 %109 to i64
  %111 = getelementptr inbounds [300 x i32], [300 x i32]* %8, i64 0, i64 %110
  %112 = load i32, i32* %111, align 4
  %113 = icmp sgt i32 %107, %112
  br i1 %113, label %114, label %132

114:                                              ; preds = %103
  %115 = load i32, i32* %2, align 4
  %116 = sext i32 %115 to i64
  %117 = getelementptr inbounds [300 x i32], [300 x i32]* %8, i64 0, i64 %116
  %118 = load i32, i32* %117, align 4
  store i32 %118, i32* %4, align 4
  %119 = load i32, i32* %2, align 4
  %120 = add nsw i32 %119, 1
  %121 = sext i32 %120 to i64
  %122 = getelementptr inbounds [300 x i32], [300 x i32]* %8, i64 0, i64 %121
  %123 = load i32, i32* %122, align 4
  %124 = load i32, i32* %2, align 4
  %125 = sext i32 %124 to i64
  %126 = getelementptr inbounds [300 x i32], [300 x i32]* %8, i64 0, i64 %125
  store i32 %123, i32* %126, align 4
  %127 = load i32, i32* %4, align 4
  %128 = load i32, i32* %2, align 4
  %129 = add nsw i32 %128, 1
  %130 = sext i32 %129 to i64
  %131 = getelementptr inbounds [300 x i32], [300 x i32]* %8, i64 0, i64 %130
  store i32 %127, i32* %131, align 4
  br label %132

132:                                              ; preds = %114, %103
  br label %133

133:                                              ; preds = %132
  %134 = load i32, i32* %2, align 4
  %135 = add nsw i32 %134, 1
  store i32 %135, i32* %2, align 4
  br label %96

136:                                              ; preds = %96
  br label %137

137:                                              ; preds = %136
  %138 = load i32, i32* %3, align 4
  %139 = add nsw i32 %138, 1
  store i32 %139, i32* %3, align 4
  br label %90

140:                                              ; preds = %90
  store i32 0, i32* %2, align 4
  br label %141

141:                                              ; preds = %186, %140
  %142 = load i32, i32* %2, align 4
  %143 = load i32, i32* %1, align 4
  %144 = icmp slt i32 %142, %143
  br i1 %144, label %145, label %189

145:                                              ; preds = %141
  %146 = load i32, i32* %2, align 4
  %147 = sext i32 %146 to i64
  %148 = getelementptr inbounds [300 x i32], [300 x i32]* %8, i64 0, i64 %147
  %149 = load i32, i32* %148, align 4
  %150 = load i32, i32* %1, align 4
  %151 = mul nsw i32 %149, %150
  %152 = load i32, i32* %5, align 4
  %153 = sub nsw i32 %151, %152
  %154 = load i32, i32* %6, align 4
  %155 = icmp eq i32 %153, %154
  br i1 %155, label %167, label %156

156:                                              ; preds = %145
  %157 = load i32, i32* %5, align 4
  %158 = load i32, i32* %2, align 4
  %159 = sext i32 %158 to i64
  %160 = getelementptr inbounds [300 x i32], [300 x i32]* %8, i64 0, i64 %159
  %161 = load i32, i32* %160, align 4
  %162 = load i32, i32* %1, align 4
  %163 = mul nsw i32 %161, %162
  %164 = sub nsw i32 %157, %163
  %165 = load i32, i32* %6, align 4
  %166 = icmp eq i32 %164, %165
  br i1 %166, label %167, label %185

167:                                              ; preds = %156, %145
  %168 = load i32, i32* %7, align 4
  %169 = icmp eq i32 %168, 0
  br i1 %169, label %170, label %176

170:                                              ; preds = %167
  %171 = load i32, i32* %2, align 4
  %172 = sext i32 %171 to i64
  %173 = getelementptr inbounds [300 x i32], [300 x i32]* %8, i64 0, i64 %172
  %174 = load i32, i32* %173, align 4
  %175 = call i32 (i8*, ...) @printf(i8* getelementptr inbounds ([3 x i8], [3 x i8]* @.str, i64 0, i64 0), i32 %174)
  br label %182

176:                                              ; preds = %167
  %177 = load i32, i32* %2, align 4
  %178 = sext i32 %177 to i64
  %179 = getelementptr inbounds [300 x i32], [300 x i32]* %8, i64 0, i64 %178
  %180 = load i32, i32* %179, align 4
  %181 = call i32 (i8*, ...) @printf(i8* getelementptr inbounds ([4 x i8], [4 x i8]* @.str.1, i64 0, i64 0), i32 %180)
  br label %182

182:                                              ; preds = %176, %170
  %183 = load i32, i32* %7, align 4
  %184 = add nsw i32 %183, 1
  store i32 %184, i32* %7, align 4
  br label %185

185:                                              ; preds = %182, %156
  br label %186

186:                                              ; preds = %185
  %187 = load i32, i32* %2, align 4
  %188 = add nsw i32 %187, 1
  store i32 %188, i32* %2, align 4
  br label %141

189:                                              ; preds = %141
  ret void
}

declare dso_local i32 @__isoc99_scanf(i8*, ...) #1

declare dso_local i32 @printf(i8*, ...) #1


!llvm.module.flags = !{!0}
!llvm.ident = !{!1}

!0 = !{i32 1, !"wchar_size", i32 4}
!1 = !{!"clang version 10.0.0-4ubuntu1 "}
